target datalayout = "e-m:e-p270:32:32-p271:32:32-p272:64:64-i64:64-i128:128-f80:128-n8:16:32:64-S128"
target triple = "x86_64-pc-linux-gnu"

%struct.PACKET = type { ptr, i64 }

@smbuf = internal global [256 x i8] zeroinitializer, align 16
@.str.25 = private unnamed_addr constant [29 x i8] c"../openssl/test/packettest.c\00", align 1
@.str.28 = private unnamed_addr constant [2 x i8] c"4\00", align 1
@.str.33 = private unnamed_addr constant [24 x i8] c"PACKET_forward(&pkt, 1)\00", align 1
@.str.34 = private unnamed_addr constant [38 x i8] c"PACKET_buf_init(&pkt, smbuf, BUF_LEN)\00", align 1
@.str.50 = private unnamed_addr constant [5 x i8] c"0xfe\00", align 1
@.str.103 = private unnamed_addr constant [33 x i8] c"PACKET_get_bytes(&pkt, &byte, 1)\00", align 1
@.str.104 = private unnamed_addr constant [8 x i8] c"byte[0]\00", align 1
@.str.105 = private unnamed_addr constant [34 x i8] c"PACKET_forward(&pkt, BUF_LEN - 3)\00", align 1

; Function Attrs: inlinehint nounwind uwtable
define internal i32 @PACKET_peek_bytes(ptr noundef %0, ptr noundef %1, i64 noundef %2) #4 {
  %4 = alloca i32, align 4
  %5 = alloca ptr, align 8
  %6 = alloca ptr, align 8
  %7 = alloca i64, align 8
  store ptr %0, ptr %5, align 8, !tbaa !33
  store ptr %1, ptr %6, align 8, !tbaa !38
  store i64 %2, ptr %7, align 8, !tbaa !11
  %8 = load ptr, ptr %5, align 8, !tbaa !33
  %9 = call i64 @PACKET_remaining(ptr noundef %8)
  %10 = load i64, ptr %7, align 8, !tbaa !11
  %11 = icmp ult i64 %9, %10
  br i1 %11, label %12, label %13

12:                                               ; preds = %3
  store i32 0, ptr %4, align 4
  br label %18

13:                                               ; preds = %3
  %14 = load ptr, ptr %5, align 8, !tbaa !33
  %15 = getelementptr inbounds nuw %struct.PACKET, ptr %14, i32 0, i32 0
  %16 = load ptr, ptr %15, align 8, !tbaa !29
  %17 = load ptr, ptr %6, align 8, !tbaa !38
  store ptr %16, ptr %17, align 8, !tbaa !13
  store i32 1, ptr %4, align 4
  br label %18

18:                                               ; preds = %13, %12
  %19 = load i32, ptr %4, align 4
  ret i32 %19
}

; Function Attrs: inlinehint nounwind uwtable
define internal void @packet_forward(ptr noundef %0, i64 noundef %1) #4 {
  %3 = alloca ptr, align 8
  %4 = alloca i64, align 8
  store ptr %0, ptr %3, align 8, !tbaa !33
  store i64 %1, ptr %4, align 8, !tbaa !11
  %5 = load i64, ptr %4, align 8, !tbaa !11
  %6 = load ptr, ptr %3, align 8, !tbaa !33
  %7 = getelementptr inbounds nuw %struct.PACKET, ptr %6, i32 0, i32 0
  %8 = load ptr, ptr %7, align 8, !tbaa !29
  %9 = getelementptr inbounds nuw i8, ptr %8, i64 %5
  store ptr %9, ptr %7, align 8, !tbaa !29
  %10 = load i64, ptr %4, align 8, !tbaa !11
  %11 = load ptr, ptr %3, align 8, !tbaa !33
  %12 = getelementptr inbounds nuw %struct.PACKET, ptr %11, i32 0, i32 1
  %13 = load i64, ptr %12, align 8, !tbaa !31
  %14 = sub i64 %13, %10
  store i64 %14, ptr %12, align 8, !tbaa !31
  ret void
}

; Function Attrs: inlinehint nounwind uwtable
define internal i64 @PACKET_remaining(ptr noundef %0) #4 {
  %2 = alloca ptr, align 8
  store ptr %0, ptr %2, align 8, !tbaa !33
  %3 = load ptr, ptr %2, align 8, !tbaa !33
  %4 = getelementptr inbounds nuw %struct.PACKET, ptr %3, i32 0, i32 1
  %5 = load i64, ptr %4, align 8, !tbaa !31
  ret i64 %5
}

; Function Attrs: inlinehint nounwind uwtable
define internal i32 @PACKET_get_bytes(ptr noundef %0, ptr noundef %1, i64 noundef %2) #4 {
  %4 = alloca i32, align 4
  %5 = alloca ptr, align 8
  %6 = alloca ptr, align 8
  %7 = alloca i64, align 8
  store ptr %0, ptr %5, align 8, !tbaa !33
  store ptr %1, ptr %6, align 8, !tbaa !38
  store i64 %2, ptr %7, align 8, !tbaa !11
  %8 = load ptr, ptr %5, align 8, !tbaa !33
  %9 = load ptr, ptr %6, align 8, !tbaa !38
  %10 = load i64, ptr %7, align 8, !tbaa !11
  %11 = call i32 @PACKET_peek_bytes(ptr noundef %8, ptr noundef %9, i64 noundef %10)
  %12 = icmp ne i32 %11, 0
  br i1 %12, label %14, label %13

13:                                               ; preds = %3
  store i32 0, ptr %4, align 4
  br label %17

14:                                               ; preds = %3
  %15 = load ptr, ptr %5, align 8, !tbaa !33
  %16 = load i64, ptr %7, align 8, !tbaa !11
  call void @packet_forward(ptr noundef %15, i64 noundef %16)
  store i32 1, ptr %4, align 4
  br label %17

17:                                               ; preds = %14, %13
  %18 = load i32, ptr %4, align 4
  ret i32 %18
}

; Function Attrs: inlinehint nounwind uwtable
define internal i32 @PACKET_forward(ptr noundef %0, i64 noundef %1) #4 {
  %3 = alloca i32, align 4
  %4 = alloca ptr, align 8
  %5 = alloca i64, align 8
  store ptr %0, ptr %4, align 8, !tbaa !33
  store i64 %1, ptr %5, align 8, !tbaa !11
  %6 = load ptr, ptr %4, align 8, !tbaa !33
  %7 = call i64 @PACKET_remaining(ptr noundef %6)
  %8 = load i64, ptr %5, align 8, !tbaa !11
  %9 = icmp ult i64 %7, %8
  br i1 %9, label %10, label %11

10:                                               ; preds = %2
  store i32 0, ptr %3, align 4
  br label %14

11:                                               ; preds = %2
  %12 = load ptr, ptr %4, align 8, !tbaa !33
  %13 = load i64, ptr %5, align 8, !tbaa !11
  call void @packet_forward(ptr noundef %12, i64 noundef %13)
  store i32 1, ptr %3, align 4
  br label %14

14:                                               ; preds = %11, %10
  %15 = load i32, ptr %3, align 4
  ret i32 %15
}

; Function Attrs: inlinehint nounwind uwtable
define internal i32 @PACKET_buf_init(ptr noundef %0, ptr noundef %1, i64 noundef %2) #4 {
  %4 = alloca i32, align 4
  %5 = alloca ptr, align 8
  %6 = alloca ptr, align 8
  %7 = alloca i64, align 8
  store ptr %0, ptr %5, align 8, !tbaa !33
  store ptr %1, ptr %6, align 8, !tbaa !13
  store i64 %2, ptr %7, align 8, !tbaa !11
  %8 = load i64, ptr %7, align 8, !tbaa !11
  %9 = icmp ugt i64 %8, 9223372036854775807
  br i1 %9, label %10, label %11

10:                                               ; preds = %3
  store i32 0, ptr %4, align 4
  br label %18

11:                                               ; preds = %3
  %12 = load ptr, ptr %6, align 8, !tbaa !13
  %13 = load ptr, ptr %5, align 8, !tbaa !33
  %14 = getelementptr inbounds nuw %struct.PACKET, ptr %13, i32 0, i32 0
  store ptr %12, ptr %14, align 8, !tbaa !29
  %15 = load i64, ptr %7, align 8, !tbaa !11
  %16 = load ptr, ptr %5, align 8, !tbaa !33
  %17 = getelementptr inbounds nuw %struct.PACKET, ptr %16, i32 0, i32 1
  store i64 %15, ptr %17, align 8, !tbaa !31
  store i32 1, ptr %4, align 4
  br label %18

18:                                               ; preds = %11, %10
  %19 = load i32, ptr %4, align 4
  ret i32 %19
}

; Function Attrs: nounwind uwtable
define internal i32 @test_PACKET_forward() #0 {
  %1 = alloca i32, align 4
  %2 = alloca ptr, align 8
  %3 = alloca %struct.PACKET, align 8
  %4 = alloca i32, align 4
  call void @llvm.lifetime.start.p0(i64 8, ptr %2) #7
  store ptr null, ptr %2, align 8, !tbaa !13
  call void @llvm.lifetime.start.p0(i64 16, ptr %3) #7
  %5 = call i32 @PACKET_buf_init(ptr noundef %3, ptr noundef @smbuf, i64 noundef 255)
  %6 = icmp ne i32 %5, 0
  %7 = zext i1 %6 to i32
  %8 = call i32 @test_true(ptr noundef @.str.25, i32 noundef 291, ptr noundef @.str.34, i32 noundef %7)
  %9 = icmp ne i32 %8, 0
  br i1 %9, label %10, label %46

10:                                               ; preds = %0
  %11 = call i32 @PACKET_forward(ptr noundef %3, i64 noundef 1)
  %12 = icmp ne i32 %11, 0
  %13 = zext i1 %12 to i32
  %14 = call i32 @test_true(ptr noundef @.str.25, i32 noundef 292, ptr noundef @.str.33, i32 noundef %13)
  %15 = icmp ne i32 %14, 0
  br i1 %15, label %16, label %46

16:                                               ; preds = %10
  %17 = call i32 @PACKET_get_bytes(ptr noundef %3, ptr noundef %2, i64 noundef 1)
  %18 = icmp ne i32 %17, 0
  %19 = zext i1 %18 to i32
  %20 = call i32 @test_true(ptr noundef @.str.25, i32 noundef 293, ptr noundef @.str.103, i32 noundef %19)
  %21 = icmp ne i32 %20, 0
  br i1 %21, label %22, label %46

22:                                               ; preds = %16
  %23 = load ptr, ptr %2, align 8, !tbaa !13
  %24 = getelementptr inbounds i8, ptr %23, i64 0
  %25 = load i8, ptr %24, align 1, !tbaa !8
  %26 = call i32 @test_uchar_eq(ptr noundef @.str.25, i32 noundef 294, ptr noundef @.str.104, ptr noundef @.str.28, i8 noundef zeroext %25, i8 noundef zeroext 4)
  %27 = icmp ne i32 %26, 0
  br i1 %27, label %28, label %46

28:                                               ; preds = %22
  %29 = call i32 @PACKET_forward(ptr noundef %3, i64 noundef 252)
  %30 = icmp ne i32 %29, 0
  %31 = zext i1 %30 to i32
  %32 = call i32 @test_true(ptr noundef @.str.25, i32 noundef 295, ptr noundef @.str.105, i32 noundef %31)
  %33 = icmp ne i32 %32, 0
  br i1 %33, label %34, label %46

34:                                               ; preds = %28
  %35 = call i32 @PACKET_get_bytes(ptr noundef %3, ptr noundef %2, i64 noundef 1)
  %36 = icmp ne i32 %35, 0
  %37 = zext i1 %36 to i32
  %38 = call i32 @test_true(ptr noundef @.str.25, i32 noundef 296, ptr noundef @.str.103, i32 noundef %37)
  %39 = icmp ne i32 %38, 0
  br i1 %39, label %40, label %46

40:                                               ; preds = %34
  %41 = load ptr, ptr %2, align 8, !tbaa !13
  %42 = getelementptr inbounds i8, ptr %41, i64 0
  %43 = load i8, ptr %42, align 1, !tbaa !8
  %44 = call i32 @test_uchar_eq(ptr noundef @.str.25, i32 noundef 297, ptr noundef @.str.104, ptr noundef @.str.50, i8 noundef zeroext %43, i8 noundef zeroext -2)
  %45 = icmp ne i32 %44, 0
  br i1 %45, label %47, label %46

46:                                               ; preds = %40, %34, %28, %22, %16, %10, %0
  store i32 0, ptr %1, align 4
  store i32 1, ptr %4, align 4
  br label %48

47:                                               ; preds = %40
  store i32 1, ptr %1, align 4
  store i32 1, ptr %4, align 4
  br label %48

48:                                               ; preds = %47, %46
  call void @llvm.lifetime.end.p0(i64 16, ptr %3) #7
  call void @llvm.lifetime.end.p0(i64 8, ptr %2) #7
  %49 = load i32, ptr %1, align 4
  ret i32 %49
}