; Function Attrs: nounwind uwtable
define internal range(i32 0, 2) i32 @test_PACKET_forward() #0 {
  %1 = tail call i32 @test_true(ptr noundef nonnull @.str.25, i32 noundef 291, ptr noundef nonnull @.str.34, i32 noundef 1) #6
  %.not = icmp eq i32 %1, 0
  br i1 %.not, label %12, label %PACKET_forward.exit

PACKET_forward.exit:                              ; preds = %0
  %2 = tail call i32 @test_true(ptr noundef nonnull @.str.25, i32 noundef 292, ptr noundef nonnull @.str.33, i32 noundef 1) #6
  %.not1 = icmp eq i32 %2, 0
  br i1 %.not1, label %12, label %PACKET_get_bytes.exit

PACKET_get_bytes.exit:                            ; preds = %PACKET_forward.exit
  %3 = tail call i32 @test_true(ptr noundef nonnull @.str.25, i32 noundef 293, ptr noundef nonnull @.str.103, i32 noundef 1) #6
  %.not2 = icmp eq i32 %3, 0
  br i1 %.not2, label %12, label %4

4:                                                ; preds = %PACKET_get_bytes.exit
  %5 = load i8, ptr getelementptr inbounds nuw (i8, ptr @smbuf, i64 1), align 1, !tbaa !4
  %6 = tail call i32 @test_uchar_eq(ptr noundef nonnull @.str.25, i32 noundef 294, ptr noundef nonnull @.str.104, ptr noundef nonnull @.str.28, i8 noundef zeroext %5, i8 noundef zeroext 4) #6
  %.not3 = icmp eq i32 %6, 0
  br i1 %.not3, label %12, label %PACKET_forward.exit10

PACKET_forward.exit10:                            ; preds = %4
  %7 = tail call i32 @test_true(ptr noundef nonnull @.str.25, i32 noundef 295, ptr noundef nonnull @.str.105, i32 noundef 1) #6
  %.not4 = icmp eq i32 %7, 0
  br i1 %.not4, label %12, label %PACKET_get_bytes.exit13

PACKET_get_bytes.exit13:                          ; preds = %PACKET_forward.exit10
  %8 = tail call i32 @test_true(ptr noundef nonnull @.str.25, i32 noundef 296, ptr noundef nonnull @.str.103, i32 noundef 1) #6
  %.not5 = icmp eq i32 %8, 0
  br i1 %.not5, label %12, label %9

9:                                                ; preds = %PACKET_get_bytes.exit13
  %10 = load i8, ptr getelementptr inbounds nuw (i8, ptr @smbuf, i64 254), align 2, !tbaa !4
  %11 = tail call i32 @test_uchar_eq(ptr noundef nonnull @.str.25, i32 noundef 297, ptr noundef nonnull @.str.104, ptr noundef nonnull @.str.50, i8 noundef zeroext %10, i8 noundef zeroext -2) #6
  %.not6 = icmp ne i32 %11, 0
  %spec.select = zext i1 %.not6 to i32
  br label %12

12:                                               ; preds = %9, %0, %PACKET_forward.exit, %PACKET_get_bytes.exit, %4, %PACKET_forward.exit10, %PACKET_get_bytes.exit13
  %.0 = phi i32 [ 0, %PACKET_get_bytes.exit13 ], [ 0, %PACKET_forward.exit10 ], [ 0, %4 ], [ 0, %PACKET_get_bytes.exit ], [ 0, %PACKET_forward.exit ], [ 0, %0 ], [ %spec.select, %9 ]
  ret i32 %.0
}